; Function Attrs: mustprogress nofree norecurse nosync nounwind willreturn memory(argmem: write) uwtable
define void @png_set_chunk_cache_max(ptr noalias noundef writeonly %0, i32 noundef %1) local_unnamed_addr #7 {
  %.not = icmp eq ptr %0, null
  br i1 %.not, label %5, label %3

3:                                                ; preds = %2
  %4 = getelementptr inbounds i8, ptr %0, i64 1068
  store i32 %1, ptr %4, align 4
  br label %5

5:                                                ; preds = %3, %2
  ret void
}